target datalayout = "e-m:e-p270:32:32-p271:32:32-p272:64:64-i64:64-i128:128-f80:128-n8:16:32:64-S128"
target triple = "x86_64-pc-linux-gnu"

%"struct.pkpy::PyObject" = type { ptr, i8, i8, %"struct.pkpy::Type", ptr }
%"struct.pkpy::Type" = type { i16 }
%"struct.pkpy::FuncDecl" = type { %"class.std::shared_ptr", %"class.pkpy::small_vector_2", %"class.pkpy::small_vector_2.4", i32, i32, i8, ptr, i32, [4 x i8], %"struct.pkpy::NameDictImpl" }
%"class.std::shared_ptr" = type { %"class.std::__shared_ptr" }
%"class.std::__shared_ptr" = type { ptr, %"class.std::__shared_count" }
%"class.std::__shared_count" = type { ptr }
%"class.pkpy::small_vector_2" = type { %"class.pkpy::small_vector" }
%"class.pkpy::small_vector" = type { [24 x i8], ptr, ptr, ptr }
%"class.pkpy::small_vector_2.4" = type { %"class.pkpy::small_vector.5" }
%"class.pkpy::small_vector.5" = type { [96 x i8], ptr, ptr, ptr }
%"struct.pkpy::NameDictImpl" = type { %union.anon.6 }
%union.anon.6 = type <{ %"struct.pkpy::LargeNameDict", [32 x i8] }>
%"struct.pkpy::LargeNameDict" = type { i8, float, i16, i16, i16, i16, ptr }
%"struct.pkpy::FuncDecl::KwArg" = type { i32, %"struct.pkpy::StrName", ptr }
%"struct.pkpy::StrName" = type { i16 }

; Function Attrs: mustprogress nounwind uwtable
define linkonce_odr noundef ptr @_ZNKSt12__shared_ptrIN4pkpy10CodeObjectELN9__gnu_cxx12_Lock_policyE2EE3getEv(ptr noundef nonnull align 8 dereferenceable(16) %0) #5 comdat align 2 {
  %2 = alloca ptr, align 8
  store ptr %0, ptr %2, align 8
  %3 = load ptr, ptr %2, align 8
  %4 = getelementptr inbounds %"class.std::__shared_ptr", ptr %3, i32 0, i32 0
  %5 = load ptr, ptr %4, align 8
  ret ptr %5
}

; Function Attrs: mustprogress nounwind uwtable
define linkonce_odr noundef ptr @_ZNKSt19__shared_ptr_accessIN4pkpy10CodeObjectELN9__gnu_cxx12_Lock_policyE2ELb0ELb0EE6_M_getEv(ptr noundef nonnull align 1 dereferenceable(1) %0) #5 comdat align 2 {
  %2 = alloca ptr, align 8
  store ptr %0, ptr %2, align 8
  %3 = load ptr, ptr %2, align 8
  %4 = call noundef ptr @_ZNKSt12__shared_ptrIN4pkpy10CodeObjectELN9__gnu_cxx12_Lock_policyE2EE3getEv(ptr noundef nonnull align 8 dereferenceable(16) %3) #3
  ret ptr %4
}

; Function Attrs: mustprogress nounwind uwtable
define linkonce_odr noundef zeroext i1 @_ZNK4pkpy8PyObject13is_attr_validEv(ptr noundef nonnull align 8 dereferenceable(24) %0) #5 comdat align 2 {
  %2 = alloca ptr, align 8
  store ptr %0, ptr %2, align 8
  %3 = load ptr, ptr %2, align 8
  %4 = getelementptr inbounds %"struct.pkpy::PyObject", ptr %3, i32 0, i32 4
  %5 = load ptr, ptr %4, align 8
  %6 = icmp ne ptr %5, null
  ret i1 %6
}

; Function Attrs: mustprogress nounwind uwtable
define linkonce_odr noundef zeroext i1 @_ZN4pkpy9is_taggedEPNS_8PyObjectE(ptr noundef %0) #5 comdat {
  %2 = alloca ptr, align 8
  store ptr %0, ptr %2, align 8
  %3 = load ptr, ptr %2, align 8
  %4 = ptrtoint ptr %3 to i64
  %5 = and i64 %4, 3
  %6 = icmp ne i64 %5, 0
  ret i1 %6
}

; Function Attrs: mustprogress nounwind uwtable
define linkonce_odr noundef nonnull align 8 dereferenceable(16) ptr @_ZNK4pkpy12small_vectorINS_8FuncDecl5KwArgELm6EEixEi(ptr noundef nonnull align 8 dereferenceable(120) %0, i32 noundef %1) #5 comdat align 2 {
  %3 = alloca ptr, align 8
  %4 = alloca i32, align 4
  store ptr %0, ptr %3, align 8
  store i32 %1, ptr %4, align 4
  %5 = load ptr, ptr %3, align 8
  %6 = getelementptr inbounds %"class.pkpy::small_vector.5", ptr %5, i32 0, i32 1
  %7 = load ptr, ptr %6, align 8
  %8 = load i32, ptr %4, align 4
  %9 = sext i32 %8 to i64
  %10 = getelementptr inbounds %"struct.pkpy::FuncDecl::KwArg", ptr %7, i64 %9
  ret ptr %10
}

; Function Attrs: mustprogress nounwind uwtable
define linkonce_odr noundef i32 @_ZNK4pkpy12small_vectorINS_8FuncDecl5KwArgELm6EE4sizeEv(ptr noundef nonnull align 8 dereferenceable(120) %0) #5 comdat align 2 {
  %2 = alloca ptr, align 8
  store ptr %0, ptr %2, align 8
  %3 = load ptr, ptr %2, align 8
  %4 = getelementptr inbounds %"class.pkpy::small_vector.5", ptr %3, i32 0, i32 2
  %5 = load ptr, ptr %4, align 8
  %6 = getelementptr inbounds %"class.pkpy::small_vector.5", ptr %3, i32 0, i32 1
  %7 = load ptr, ptr %6, align 8
  %8 = ptrtoint ptr %5 to i64
  %9 = ptrtoint ptr %7 to i64
  %10 = sub i64 %8, %9
  %11 = sdiv exact i64 %10, 16
  %12 = trunc i64 %11 to i32
  ret i32 %12
}

; Function Attrs: mustprogress nounwind uwtable
define linkonce_odr noundef ptr @_ZNKSt19__shared_ptr_accessIN4pkpy10CodeObjectELN9__gnu_cxx12_Lock_policyE2ELb0ELb0EEptEv(ptr noundef nonnull align 1 dereferenceable(1) %0) #5 comdat align 2 {
  %2 = alloca ptr, align 8
  store ptr %0, ptr %2, align 8
  %3 = load ptr, ptr %2, align 8
  %4 = call noundef ptr @_ZNKSt19__shared_ptr_accessIN4pkpy10CodeObjectELN9__gnu_cxx12_Lock_policyE2ELb0ELb0EE6_M_getEv(ptr noundef nonnull align 1 dereferenceable(1) %3) #3
  ret ptr %4
}

; Function Attrs: mustprogress uwtable
define void @_ZNK4pkpy8FuncDecl8_gc_markEv(ptr noundef nonnull align 8 dereferenceable(272) %0) #4 align 2 {
  %2 = alloca ptr, align 8
  %3 = alloca i32, align 4
  store ptr %0, ptr %2, align 8
  %4 = load ptr, ptr %2, align 8
  %5 = getelementptr inbounds %"struct.pkpy::FuncDecl", ptr %4, i32 0, i32 0
  %6 = call noundef ptr @_ZNKSt19__shared_ptr_accessIN4pkpy10CodeObjectELN9__gnu_cxx12_Lock_policyE2ELb0ELb0EEptEv(ptr noundef nonnull align 1 dereferenceable(1) %5) #3
  call void @_ZNK4pkpy10CodeObject8_gc_markEv(ptr noundef nonnull align 8 dereferenceable(416) %6)
  store i32 0, ptr %3, align 4
  br label %7

7:                                                ; preds = %59, %1
  %8 = load i32, ptr %3, align 4
  %9 = getelementptr inbounds %"struct.pkpy::FuncDecl", ptr %4, i32 0, i32 2
  %10 = call noundef i32 @_ZNK4pkpy12small_vectorINS_8FuncDecl5KwArgELm6EE4sizeEv(ptr noundef nonnull align 8 dereferenceable(120) %9)
  %11 = icmp slt i32 %8, %10
  br i1 %11, label %12, label %62

12:                                               ; preds = %7
  %13 = getelementptr inbounds %"struct.pkpy::FuncDecl", ptr %4, i32 0, i32 2
  %14 = load i32, ptr %3, align 4
  %15 = call noundef nonnull align 8 dereferenceable(16) ptr @_ZNK4pkpy12small_vectorINS_8FuncDecl5KwArgELm6EEixEi(ptr noundef nonnull align 8 dereferenceable(120) %13, i32 noundef %14)
  %16 = getelementptr inbounds %"struct.pkpy::FuncDecl::KwArg", ptr %15, i32 0, i32 2
  %17 = load ptr, ptr %16, align 8
  %18 = call noundef zeroext i1 @_ZN4pkpy9is_taggedEPNS_8PyObjectE(ptr noundef %17) #3
  br i1 %18, label %58, label %19

19:                                               ; preds = %12
  %20 = getelementptr inbounds %"struct.pkpy::FuncDecl", ptr %4, i32 0, i32 2
  %21 = load i32, ptr %3, align 4
  %22 = call noundef nonnull align 8 dereferenceable(16) ptr @_ZNK4pkpy12small_vectorINS_8FuncDecl5KwArgELm6EEixEi(ptr noundef nonnull align 8 dereferenceable(120) %20, i32 noundef %21)
  %23 = getelementptr inbounds %"struct.pkpy::FuncDecl::KwArg", ptr %22, i32 0, i32 2
  %24 = load ptr, ptr %23, align 8
  %25 = getelementptr inbounds %"struct.pkpy::PyObject", ptr %24, i32 0, i32 2
  %26 = load i8, ptr %25, align 1
  %27 = trunc i8 %26 to i1
  br i1 %27, label %58, label %28

28:                                               ; preds = %19
  %29 = getelementptr inbounds %"struct.pkpy::FuncDecl", ptr %4, i32 0, i32 2
  %30 = load i32, ptr %3, align 4
  %31 = call noundef nonnull align 8 dereferenceable(16) ptr @_ZNK4pkpy12small_vectorINS_8FuncDecl5KwArgELm6EEixEi(ptr noundef nonnull align 8 dereferenceable(120) %29, i32 noundef %30)
  %32 = getelementptr inbounds %"struct.pkpy::FuncDecl::KwArg", ptr %31, i32 0, i32 2
  %33 = load ptr, ptr %32, align 8
  %34 = getelementptr inbounds %"struct.pkpy::PyObject", ptr %33, i32 0, i32 2
  store i8 1, ptr %34, align 1
  %35 = getelementptr inbounds %"struct.pkpy::FuncDecl", ptr %4, i32 0, i32 2
  %36 = load i32, ptr %3, align 4
  %37 = call noundef nonnull align 8 dereferenceable(16) ptr @_ZNK4pkpy12small_vectorINS_8FuncDecl5KwArgELm6EEixEi(ptr noundef nonnull align 8 dereferenceable(120) %35, i32 noundef %36)
  %38 = getelementptr inbounds %"struct.pkpy::FuncDecl::KwArg", ptr %37, i32 0, i32 2
  %39 = load ptr, ptr %38, align 8
  %40 = load ptr, ptr %39, align 8
  %41 = getelementptr inbounds ptr, ptr %40, i64 0
  %42 = load ptr, ptr %41, align 8
  call void %42(ptr noundef nonnull align 8 dereferenceable(24) %39)
  %43 = getelementptr inbounds %"struct.pkpy::FuncDecl", ptr %4, i32 0, i32 2
  %44 = load i32, ptr %3, align 4
  %45 = call noundef nonnull align 8 dereferenceable(16) ptr @_ZNK4pkpy12small_vectorINS_8FuncDecl5KwArgELm6EEixEi(ptr noundef nonnull align 8 dereferenceable(120) %43, i32 noundef %44)
  %46 = getelementptr inbounds %"struct.pkpy::FuncDecl::KwArg", ptr %45, i32 0, i32 2
  %47 = load ptr, ptr %46, align 8
  %48 = call noundef zeroext i1 @_ZNK4pkpy8PyObject13is_attr_validEv(ptr noundef nonnull align 8 dereferenceable(24) %47) #3
  br i1 %48, label %49, label %57

49:                                               ; preds = %28
  %50 = getelementptr inbounds %"struct.pkpy::FuncDecl", ptr %4, i32 0, i32 2
  %51 = load i32, ptr %3, align 4
  %52 = call noundef nonnull align 8 dereferenceable(16) ptr @_ZNK4pkpy12small_vectorINS_8FuncDecl5KwArgELm6EEixEi(ptr noundef nonnull align 8 dereferenceable(120) %50, i32 noundef %51)
  %53 = getelementptr inbounds %"struct.pkpy::FuncDecl::KwArg", ptr %52, i32 0, i32 2
  %54 = load ptr, ptr %53, align 8
  %55 = getelementptr inbounds %"struct.pkpy::PyObject", ptr %54, i32 0, i32 4
  %56 = load ptr, ptr %55, align 8
  call void @_ZN4pkpy17_gc_mark_namedictEPNS_12NameDictImplIPNS_8PyObjectEEE(ptr noundef %56)
  br label %57

57:                                               ; preds = %49, %28
  br label %58

58:                                               ; preds = %57, %19, %12
  br label %59

59:                                               ; preds = %58
  %60 = load i32, ptr %3, align 4
  %61 = add nsw i32 %60, 1
  store i32 %61, ptr %3, align 4
  br label %7, !llvm.loop !4

62:                                               ; preds = %7
  ret void
}