; Function Attrs: mustprogress uwtable
define void @_ZNK4pkpy8FuncDecl8_gc_markEv(ptr nocapture noundef nonnull readonly align 8 dereferenceable(272) %0) local_unnamed_addr #3 align 2 {
  %2 = load ptr, ptr %0, align 8
  tail call void @_ZNK4pkpy10CodeObject8_gc_markEv(ptr noundef nonnull align 8 dereferenceable(416) %2)
  %3 = getelementptr inbounds i8, ptr %0, i64 168
  %4 = getelementptr inbounds i8, ptr %0, i64 160
  %5 = load ptr, ptr %3, align 8
  %6 = load ptr, ptr %4, align 8
  %7 = ptrtoint ptr %5 to i64
  %8 = ptrtoint ptr %6 to i64
  %9 = sub i64 %7, %8
  %10 = lshr exact i64 %9, 4
  %11 = trunc i64 %10 to i32
  %12 = icmp sgt i32 %11, 0
  br i1 %12, label %.lr.ph, label %._crit_edge

.lr.ph:                                           ; preds = %1, %34
  %13 = phi ptr [ %35, %34 ], [ %6, %1 ]
  %indvars.iv = phi i64 [ %indvars.iv.next, %34 ], [ 0, %1 ]
  %14 = getelementptr inbounds %"struct.pkpy::FuncDecl::KwArg", ptr %13, i64 %indvars.iv, i32 2
  %15 = load ptr, ptr %14, align 8
  %16 = ptrtoint ptr %15 to i64
  %17 = and i64 %16, 3
  %.not = icmp eq i64 %17, 0
  br i1 %.not, label %18, label %34

18:                                               ; preds = %.lr.ph
  %19 = getelementptr inbounds i8, ptr %15, i64 9
  %20 = load i8, ptr %19, align 1
  %21 = trunc i8 %20 to i1
  br i1 %21, label %34, label %22

22:                                               ; preds = %18
  store i8 1, ptr %19, align 1
  %23 = load ptr, ptr %4, align 8
  %24 = getelementptr inbounds %"struct.pkpy::FuncDecl::KwArg", ptr %23, i64 %indvars.iv, i32 2
  %25 = load ptr, ptr %24, align 8
  %26 = load ptr, ptr %25, align 8
  %27 = load ptr, ptr %26, align 8
  tail call void %27(ptr noundef nonnull align 8 dereferenceable(24) %25)
  %28 = load ptr, ptr %4, align 8
  %29 = getelementptr inbounds %"struct.pkpy::FuncDecl::KwArg", ptr %28, i64 %indvars.iv, i32 2
  %30 = load ptr, ptr %29, align 8
  %31 = getelementptr inbounds i8, ptr %30, i64 16
  %32 = load ptr, ptr %31, align 8
  %.not8 = icmp eq ptr %32, null
  br i1 %.not8, label %34, label %33

33:                                               ; preds = %22
  tail call void @_ZN4pkpy17_gc_mark_namedictEPNS_12NameDictImplIPNS_8PyObjectEEE(ptr noundef nonnull %32)
  %.pre = load ptr, ptr %4, align 8
  br label %34

34:                                               ; preds = %.lr.ph, %18, %33, %22
  %35 = phi ptr [ %13, %.lr.ph ], [ %13, %18 ], [ %.pre, %33 ], [ %28, %22 ]
  %indvars.iv.next = add nuw nsw i64 %indvars.iv, 1
  %36 = load ptr, ptr %3, align 8
  %37 = ptrtoint ptr %36 to i64
  %38 = ptrtoint ptr %35 to i64
  %39 = sub i64 %37, %38
  %sext = shl i64 %39, 28
  %40 = ashr i64 %sext, 32
  %41 = icmp slt i64 %indvars.iv.next, %40
  br i1 %41, label %.lr.ph, label %._crit_edge, !llvm.loop !7

._crit_edge:                                      ; preds = %34, %1
  ret void
}